; Function Attrs: nofree nounwind uwtable
define internal noundef i32 @H5D__earray_idx_dump(ptr noundef readonly captures(none) %0, ptr noundef captures(none) %1) #4 {
  %3 = load i8, ptr @H5D_init_g, align 1, !tbaa !3, !range !7, !noundef !8
  %4 = trunc nuw i8 %3 to i1
  %5 = load i8, ptr @H5_libterm_g, align 1, !range !7
  %6 = trunc nuw i8 %5 to i1
  %7 = xor i1 %6, true
  %8 = select i1 %4, i1 true, i1 %7
  br i1 %8, label %9, label %13, !prof !9

9:                                                ; preds = %2
  %10 = getelementptr inbounds nuw i8, ptr %0, i64 8
  %11 = load i64, ptr %10, align 8, !tbaa !44
  %12 = tail call i32 (ptr, ptr, ...) @fprintf(ptr noundef %1, ptr noundef nonnull @.str.44, i64 noundef %11) #11
  br label %13

13:                                               ; preds = %9, %2
  ret i32 0
}